; Function Attrs: mustprogress nofree norecurse nosync nounwind memory(argmem: readwrite) uwtable
define hidden void @_ZN11tbv_manager3setER3tbvmjj(ptr noundef nonnull readnone align 8 captures(none) dereferenceable(552) %0, ptr noundef nonnull align 4 captures(none) dereferenceable(4) %1, i64 noundef %2, i32 noundef %3, i32 noundef %4) local_unnamed_addr #8 align 2 {
  %6 = add i32 %3, 1
  %.not10 = icmp eq i32 %6, %4
  br i1 %.not10, label %._crit_edge, label %.lr.ph.preheader

.lr.ph.preheader:                                 ; preds = %5
  %7 = sub i32 %6, %4
  %umax = tail call i32 @llvm.umax.i32(i32 %7, i32 1)
  %wide.trip.count = zext i32 %umax to i64
  br label %.lr.ph

._crit_edge:                                      ; preds = %.lr.ph, %5
  ret void

.lr.ph:                                           ; preds = %.lr.ph.preheader, %.lr.ph
  %indvars.iv = phi i64 [ 0, %.lr.ph.preheader ], [ %indvars.iv.next, %.lr.ph ]
  %8 = trunc nuw i64 %indvars.iv to i32
  %9 = add i32 %4, %8
  %10 = shl nuw i64 1, %indvars.iv
  %11 = and i64 %10, %2
  %.not = icmp eq i64 %11, 0
  %12 = select i1 %.not, i32 1, i32 2
  %13 = shl i32 %9, 1
  %14 = shl nuw i32 %12, 30
  %sext.i = ashr i32 %14, 31
  %15 = lshr i32 %13, 5
  %16 = zext nneg i32 %15 to i64
  %17 = getelementptr inbounds nuw [1 x i32], ptr %1, i64 0, i64 %16
  %18 = load i32, ptr %17, align 4, !tbaa !17
  %19 = xor i32 %18, %sext.i
  %20 = and i32 %13, 30
  %21 = shl nuw nsw i32 1, %20
  %22 = and i32 %19, %21
  %23 = and i32 %12, 1
  %sext7.i = sub nsw i32 0, %23
  %24 = xor i32 %18, %sext7.i
  %25 = shl nuw i32 2, %20
  %26 = and i32 %24, %25
  %27 = or disjoint i32 %22, %26
  %28 = xor i32 %27, %18
  store i32 %28, ptr %17, align 4, !tbaa !17
  %indvars.iv.next = add nuw nsw i64 %indvars.iv, 1
  %exitcond.not = icmp eq i64 %indvars.iv.next, %wide.trip.count
  br i1 %exitcond.not, label %._crit_edge, label %.lr.ph, !llvm.loop !20
}